target datalayout = "e-m:e-p270:32:32-p271:32:32-p272:64:64-i64:64-i128:128-f80:128-n8:16:32:64-S128"
target triple = "x86_64-pc-linux-gnu"

%class.ImageDecompressor = type { ptr, ptr }

@_ZN17ImageDecompressor18_decompressors_numE = hidden global i32 0, align 4
@_ZN17ImageDecompressor14_decompressorsE = hidden global ptr null, align 8
@.str = private unnamed_addr constant [17 x i8] c"ZIP_InflateFully\00", align 1
@_ZL15ZipInflateFully = internal global ptr null, align 8
@.str.1 = private unnamed_addr constant [4 x i8] c"zip\00", align 1
@.str.2 = private unnamed_addr constant [11 x i8] c"compact-cp\00", align 1
@_ZTV15ZipDecompressor = hidden unnamed_addr constant { [3 x ptr] } { [3 x ptr] [ptr null, ptr @_ZTI15ZipDecompressor, ptr @_ZN15ZipDecompressor19decompress_resourceEPhS0_P14ResourceHeaderPK12ImageStrings] }, align 8
@_ZTV24SharedStringDecompressor = hidden unnamed_addr constant { [3 x ptr] } { [3 x ptr] [ptr null, ptr @_ZTI24SharedStringDecompressor, ptr @_ZN24SharedStringDecompressor19decompress_resourceEPhS0_P14ResourceHeaderPK12ImageStrings] }, align 8
@_ZTV17ImageDecompressor = linkonce_odr hidden unnamed_addr constant { [3 x ptr] } { [3 x ptr] [ptr null, ptr @_ZTI17ImageDecompressor, ptr @__cxa_pure_virtual] }, comdat, align 8

; Function Attrs: mustprogress nounwind uwtable
define linkonce_odr hidden void @_ZN17ImageDecompressorC2EPKc(ptr noundef nonnull align 8 dereferenceable(16) %0, ptr noundef %1) unnamed_addr #4 comdat align 2 {
  %3 = alloca ptr, align 8
  %4 = alloca ptr, align 8
  store ptr %0, ptr %3, align 8
  store ptr %1, ptr %4, align 8
  %5 = load ptr, ptr %3, align 8
  store ptr getelementptr inbounds inrange(-16, 8) ({ [3 x ptr] }, ptr @_ZTV17ImageDecompressor, i32 0, i32 0, i32 2), ptr %5, align 8
  %6 = getelementptr inbounds %class.ImageDecompressor, ptr %5, i32 0, i32 1
  %7 = load ptr, ptr %4, align 8
  store ptr %7, ptr %6, align 8
  ret void
}

; Function Attrs: mustprogress nounwind uwtable
define linkonce_odr hidden void @_ZN24SharedStringDecompressorC2EPKc(ptr noundef nonnull align 8 dereferenceable(16) %0, ptr noundef %1) unnamed_addr #4 comdat align 2 {
  %3 = alloca ptr, align 8
  %4 = alloca ptr, align 8
  store ptr %0, ptr %3, align 8
  store ptr %1, ptr %4, align 8
  %5 = load ptr, ptr %3, align 8
  %6 = load ptr, ptr %4, align 8
  call void @_ZN17ImageDecompressorC2EPKc(ptr noundef nonnull align 8 dereferenceable(16) %5, ptr noundef %6)
  store ptr getelementptr inbounds inrange(-16, 8) ({ [3 x ptr] }, ptr @_ZTV24SharedStringDecompressor, i32 0, i32 0, i32 2), ptr %5, align 8
  ret void
}

; Function Attrs: mustprogress uwtable
define linkonce_odr hidden void @_ZN15ZipDecompressorC2EPKc(ptr noundef nonnull align 8 dereferenceable(16) %0, ptr noundef %1) unnamed_addr #0 comdat align 2 {
  %3 = alloca ptr, align 8
  %4 = alloca ptr, align 8
  store ptr %0, ptr %3, align 8
  store ptr %1, ptr %4, align 8
  %5 = load ptr, ptr %3, align 8
  %6 = load ptr, ptr %4, align 8
  call void @_ZN17ImageDecompressorC2EPKc(ptr noundef nonnull align 8 dereferenceable(16) %5, ptr noundef %6)
  store ptr getelementptr inbounds inrange(-16, 8) ({ [3 x ptr] }, ptr @_ZTV15ZipDecompressor, i32 0, i32 0, i32 2), ptr %5, align 8
  ret void
}

; Function Attrs: mustprogress uwtable
define internal noundef ptr @_ZL9findEntryPKc(ptr noundef %0) #0 {
  %2 = alloca ptr, align 8
  %3 = alloca ptr, align 8
  %4 = alloca ptr, align 8
  store ptr %0, ptr %3, align 8
  %5 = call ptr @JVM_LoadZipLibrary()
  store ptr %5, ptr %4, align 8
  %6 = load ptr, ptr %4, align 8
  %7 = icmp eq ptr %6, null
  br i1 %7, label %8, label %9

8:                                                ; preds = %1
  store ptr null, ptr %2, align 8
  br label %13

9:                                                ; preds = %1
  %10 = load ptr, ptr %4, align 8
  %11 = load ptr, ptr %3, align 8
  %12 = call ptr @dlsym(ptr noundef %10, ptr noundef %11) #11
  store ptr %12, ptr %2, align 8
  br label %13

13:                                               ; preds = %9, %8
  %14 = load ptr, ptr %2, align 8
  ret ptr %14
}

; Function Attrs: mustprogress uwtable
define hidden void @_ZN17ImageDecompressor23image_decompressor_initEv() #0 align 2 personality ptr @__gxx_personality_v0 {
  %1 = alloca ptr, align 8
  %2 = alloca i32, align 4
  %3 = load ptr, ptr @_ZN17ImageDecompressor14_decompressorsE, align 8
  %4 = icmp eq ptr %3, null
  br i1 %4, label %5, label %30

5:                                                ; preds = %0
  %6 = call noundef ptr @_ZL9findEntryPKc(ptr noundef @.str)
  store ptr %6, ptr @_ZL15ZipInflateFully, align 8
  store i32 2, ptr @_ZN17ImageDecompressor18_decompressors_numE, align 4
  %7 = load i32, ptr @_ZN17ImageDecompressor18_decompressors_numE, align 4
  %8 = sext i32 %7 to i64
  %9 = call { i64, i1 } @llvm.umul.with.overflow.i64(i64 %8, i64 8)
  %10 = extractvalue { i64, i1 } %9, 1
  %11 = extractvalue { i64, i1 } %9, 0
  %12 = select i1 %10, i64 -1, i64 %11
  %13 = call noalias noundef nonnull ptr @_Znam(i64 noundef %12) #9
  store ptr %13, ptr @_ZN17ImageDecompressor14_decompressorsE, align 8
  %14 = call noalias noundef nonnull ptr @_Znwm(i64 noundef 16) #9
  invoke void @_ZN15ZipDecompressorC2EPKc(ptr noundef nonnull align 8 dereferenceable(16) %14, ptr noundef @.str.1)
          to label %15 unwind label %22

15:                                               ; preds = %5
  %16 = load ptr, ptr @_ZN17ImageDecompressor14_decompressorsE, align 8
  %17 = getelementptr inbounds ptr, ptr %16, i64 0
  store ptr %14, ptr %17, align 8
  %18 = call noalias noundef nonnull ptr @_Znwm(i64 noundef 16) #9
  invoke void @_ZN24SharedStringDecompressorC2EPKc(ptr noundef nonnull align 8 dereferenceable(16) %18, ptr noundef @.str.2)
          to label %19 unwind label %26

19:                                               ; preds = %15
  %20 = load ptr, ptr @_ZN17ImageDecompressor14_decompressorsE, align 8
  %21 = getelementptr inbounds ptr, ptr %20, i64 1
  store ptr %18, ptr %21, align 8
  br label %30

22:                                               ; preds = %5
  %23 = landingpad { ptr, i32 }
          cleanup
  %24 = extractvalue { ptr, i32 } %23, 0
  store ptr %24, ptr %1, align 8
  %25 = extractvalue { ptr, i32 } %23, 1
  store i32 %25, ptr %2, align 4
  call void @_ZdlPvm(ptr noundef %14, i64 noundef 16) #10
  br label %31

26:                                               ; preds = %15
  %27 = landingpad { ptr, i32 }
          cleanup
  %28 = extractvalue { ptr, i32 } %27, 0
  store ptr %28, ptr %1, align 8
  %29 = extractvalue { ptr, i32 } %27, 1
  store i32 %29, ptr %2, align 4
  call void @_ZdlPvm(ptr noundef %18, i64 noundef 16) #10
  br label %31

30:                                               ; preds = %19, %0
  ret void

31:                                               ; preds = %26, %22
  %32 = load ptr, ptr %1, align 8
  %33 = load i32, ptr %2, align 4
  %34 = insertvalue { ptr, i32 } poison, ptr %32, 0
  %35 = insertvalue { ptr, i32 } %34, i32 %33, 1
  resume { ptr, i32 } %35
}