; Function Attrs: mustprogress uwtable
define hidden void @_ZN17ImageDecompressor23image_decompressor_initEv() local_unnamed_addr #0 align 2 personality ptr @__gxx_personality_v0 {
  %1 = load ptr, ptr @_ZN17ImageDecompressor14_decompressorsE, align 8
  %2 = icmp eq ptr %1, null
  br i1 %2, label %3, label %15

3:                                                ; preds = %0
  %4 = tail call ptr @JVM_LoadZipLibrary()
  %5 = icmp eq ptr %4, null
  br i1 %5, label %8, label %6

6:                                                ; preds = %3
  %7 = tail call ptr @dlsym(ptr noundef nonnull %4, ptr noundef nonnull @.str) #11
  br label %8

8:                                                ; preds = %6, %3
  %.0.i = phi ptr [ %7, %6 ], [ null, %3 ]
  store ptr %.0.i, ptr @_ZL15ZipInflateFully, align 8
  store i32 2, ptr @_ZN17ImageDecompressor18_decompressors_numE, align 4
  %9 = tail call noalias noundef nonnull dereferenceable(16) ptr @_Znam(i64 noundef 16) #12
  store ptr %9, ptr @_ZN17ImageDecompressor14_decompressorsE, align 8
  %10 = tail call noalias noundef nonnull dereferenceable(16) ptr @_Znwm(i64 noundef 16) #12
  %11 = getelementptr inbounds i8, ptr %10, i64 8
  store ptr @.str.1, ptr %11, align 8
  store ptr getelementptr inbounds inrange(-16, 8) (i8, ptr @_ZTV15ZipDecompressor, i64 16), ptr %10, align 8
  store ptr %10, ptr %9, align 8
  %12 = tail call noalias noundef nonnull dereferenceable(16) ptr @_Znwm(i64 noundef 16) #12
  %13 = getelementptr inbounds i8, ptr %12, i64 8
  store ptr @.str.2, ptr %13, align 8
  store ptr getelementptr inbounds inrange(-16, 8) (i8, ptr @_ZTV24SharedStringDecompressor, i64 16), ptr %12, align 8
  %14 = getelementptr inbounds i8, ptr %9, i64 8
  store ptr %12, ptr %14, align 8
  br label %15

15:                                               ; preds = %8, %0
  ret void
}